target datalayout = "e-m:e-p270:32:32-p271:32:32-p272:64:64-i64:64-i128:128-f80:128-n8:16:32:64-S128"
target triple = "x86_64-pc-linux-gnu"

%struct.MpegEncContext = type { ptr, i32, i32, i32, [12 x i32], i32, %struct.ScanTable, %struct.ScanTable, [64 x i8], [64 x i8], ptr, ptr, i32, i32, i32, i32, i32, i32, i32, i32, i32, i32, i32, i32, i32, i32, i32, i32, i32, i32, i32, i32, i64, i64, ptr, %struct.BufferPoolContext, i32, i32, %union.anon, i32, %struct.MPVWorkPicture, %struct.MPVWorkPicture, %struct.MPVWorkPicture, i32, [3 x i32], ptr, [3 x ptr], ptr, ptr, ptr, ptr, ptr, ptr, [3 x ptr], i32, ptr, ptr, ptr, ptr, %struct.ScratchpadContext, i32, i32, i32, i32, i32, i32, %struct.BlockDSPContext, %struct.H264ChromaContext, %struct.HpelDSPContext, %struct.IDCTDSPContext, %struct.QpelDSPContext, %struct.VideoDSPContext, %struct.H263DSPContext, ptr, [2 x [2 x ptr]], i32, i32, [2 x [4 x [2 x i32]]], [2 x [2 x i32]], [2 x [2 x [2 x i32]]], [2 x [64 x i16]], i32, i32, i32, i32, i32, [6 x i32], [6 x i32], [3 x ptr], ptr, [64 x i16], [64 x i16], [64 x i16], [64 x i16], i32, i32, %struct.GetBitContext, i32, i32, i32, i32, i32, i32, i32, i32, i32, i32, i32, i32, i32, i32, i32, i64, i64, i16, i16, i16, i16, i32, i32, i32, i32, i32, i32, i32, i32, i32, [3 x i32], i32, i32, i32, i32, i32, i32, %struct.GetBitContext, i32, [2 x [2 x i32]], i32, i32, i32, i32, i32, i32, i32, i32, i32, i32, i32, i32, i32, i32, [2 x i32], i32, i32, ptr, ptr, ptr, ptr, ptr, i32, i32, %struct.ERContext }
%struct.ScanTable = type { ptr, [64 x i8], [64 x i8] }
%struct.BufferPoolContext = type { ptr, ptr, ptr, ptr, ptr, i32, i32, i32 }
%union.anon = type { [32 x ptr] }
%struct.MPVWorkPicture = type { [3 x ptr], [3 x i64], ptr, ptr, [2 x ptr], ptr, ptr, [2 x ptr], i32 }
%struct.ScratchpadContext = type { ptr, ptr, %union.anon.0, i32 }
%union.anon.0 = type { ptr }
%struct.BlockDSPContext = type { ptr, ptr, [2 x ptr] }
%struct.H264ChromaContext = type { [4 x ptr], [4 x ptr] }
%struct.HpelDSPContext = type { [4 x [4 x ptr]], [4 x [4 x ptr]], [4 x [4 x ptr]], [4 x ptr] }
%struct.IDCTDSPContext = type { ptr, ptr, ptr, ptr, ptr, ptr, [64 x i8], i32, i32 }
%struct.QpelDSPContext = type { [2 x [16 x ptr]], [2 x [16 x ptr]], [2 x [16 x ptr]] }
%struct.VideoDSPContext = type { ptr, ptr }
%struct.H263DSPContext = type { ptr, ptr }
%struct.GetBitContext = type { ptr, ptr, i32, i32, i32 }
%struct.ERContext = type { ptr, ptr, i32, ptr, i32, i32, i32, i64, i64, i32, i32, ptr, ptr, [3 x ptr], ptr, ptr, [2 x [4 x [2 x i32]]], %struct.ERPicture, %struct.ERPicture, %struct.ERPicture, [2 x ptr], [2 x ptr], i16, i16, i32, i32, ptr, ptr }
%struct.ERPicture = type { ptr, ptr, ptr, [2 x ptr], [2 x ptr], ptr, i32 }
%struct.AVCodecContext = type { ptr, i32, i32, ptr, i32, i32, ptr, ptr, ptr, i64, i32, i32, ptr, i32, %struct.AVRational, %struct.AVRational, %struct.AVRational, i32, i32, i32, i32, i32, %struct.AVRational, i32, i32, i32, i32, i32, i32, i32, i32, i32, i32, i32, ptr, ptr, i32, float, float, float, float, float, float, float, float, float, i32, i32, i32, i32, i32, i32, i32, i32, i32, i32, i32, i32, ptr, ptr, ptr, i32, i32, i32, i32, i32, i32, i32, i32, i32, i32, %struct.AVChannelLayout, i32, i32, i32, i32, i32, i32, i32, i32, ptr, i32, i32, i32, float, float, i32, i32, i32, i32, i32, ptr, i64, i64, float, float, i32, i32, ptr, ptr, i32, i32, i32, i32, i32, ptr, ptr, ptr, ptr, i32, i32, [8 x i64], i32, i32, i32, i32, i32, i32, i32, ptr, ptr, i32, i32, i32, i32, i32, i32, i32, i32, i32, i32, ptr, ptr, i32, i32, ptr, ptr, ptr, ptr, i32, i32, i64, i32, i32, i64, ptr, i64, ptr, i32, ptr, i32 }
%struct.AVRational = type { i32, i32 }
%struct.AVChannelLayout = type { i32, i32, %union.anon.1, ptr }
%union.anon.1 = type { i64 }

; Function Attrs: nounwind uwtable
define void @ff_wmv2_add_mb(ptr noundef %0, ptr noundef %1, ptr noundef %2, ptr noundef %3, ptr noundef %4) #0 {
  %6 = alloca ptr, align 8
  %7 = alloca ptr, align 8
  %8 = alloca ptr, align 8
  %9 = alloca ptr, align 8
  %10 = alloca ptr, align 8
  %11 = alloca ptr, align 8
  %12 = alloca i32, align 4
  store ptr %0, ptr %6, align 8, !tbaa !4
  store ptr %1, ptr %7, align 8, !tbaa !9
  store ptr %2, ptr %8, align 8, !tbaa !11
  store ptr %3, ptr %9, align 8, !tbaa !11
  store ptr %4, ptr %10, align 8, !tbaa !11
  call void @llvm.lifetime.start.p0(i64 8, ptr %11) #10
  %13 = load ptr, ptr %6, align 8, !tbaa !4
  store ptr %13, ptr %11, align 8, !tbaa !13
  %14 = load ptr, ptr %11, align 8, !tbaa !13
  %15 = load ptr, ptr %7, align 8, !tbaa !9
  %16 = getelementptr inbounds [64 x i16], ptr %15, i64 0
  %17 = getelementptr inbounds [64 x i16], ptr %16, i64 0, i64 0
  %18 = load ptr, ptr %8, align 8, !tbaa !11
  %19 = load ptr, ptr %6, align 8, !tbaa !4
  %20 = getelementptr inbounds nuw %struct.MpegEncContext, ptr %19, i32 0, i32 32
  %21 = load i64, ptr %20, align 8, !tbaa !15
  %22 = trunc i64 %21 to i32
  call void @wmv2_add_block(ptr noundef %14, ptr noundef %17, ptr noundef %18, i32 noundef %22, i32 noundef 0)
  %23 = load ptr, ptr %11, align 8, !tbaa !13
  %24 = load ptr, ptr %7, align 8, !tbaa !9
  %25 = getelementptr inbounds [64 x i16], ptr %24, i64 1
  %26 = getelementptr inbounds [64 x i16], ptr %25, i64 0, i64 0
  %27 = load ptr, ptr %8, align 8, !tbaa !11
  %28 = getelementptr inbounds i8, ptr %27, i64 8
  %29 = load ptr, ptr %6, align 8, !tbaa !4
  %30 = getelementptr inbounds nuw %struct.MpegEncContext, ptr %29, i32 0, i32 32
  %31 = load i64, ptr %30, align 8, !tbaa !15
  %32 = trunc i64 %31 to i32
  call void @wmv2_add_block(ptr noundef %23, ptr noundef %26, ptr noundef %28, i32 noundef %32, i32 noundef 1)
  %33 = load ptr, ptr %11, align 8, !tbaa !13
  %34 = load ptr, ptr %7, align 8, !tbaa !9
  %35 = getelementptr inbounds [64 x i16], ptr %34, i64 2
  %36 = getelementptr inbounds [64 x i16], ptr %35, i64 0, i64 0
  %37 = load ptr, ptr %8, align 8, !tbaa !11
  %38 = load ptr, ptr %6, align 8, !tbaa !4
  %39 = getelementptr inbounds nuw %struct.MpegEncContext, ptr %38, i32 0, i32 32
  %40 = load i64, ptr %39, align 8, !tbaa !15
  %41 = mul nsw i64 8, %40
  %42 = getelementptr inbounds i8, ptr %37, i64 %41
  %43 = load ptr, ptr %6, align 8, !tbaa !4
  %44 = getelementptr inbounds nuw %struct.MpegEncContext, ptr %43, i32 0, i32 32
  %45 = load i64, ptr %44, align 8, !tbaa !15
  %46 = trunc i64 %45 to i32
  call void @wmv2_add_block(ptr noundef %33, ptr noundef %36, ptr noundef %42, i32 noundef %46, i32 noundef 2)
  %47 = load ptr, ptr %11, align 8, !tbaa !13
  %48 = load ptr, ptr %7, align 8, !tbaa !9
  %49 = getelementptr inbounds [64 x i16], ptr %48, i64 3
  %50 = getelementptr inbounds [64 x i16], ptr %49, i64 0, i64 0
  %51 = load ptr, ptr %8, align 8, !tbaa !11
  %52 = getelementptr inbounds i8, ptr %51, i64 8
  %53 = load ptr, ptr %6, align 8, !tbaa !4
  %54 = getelementptr inbounds nuw %struct.MpegEncContext, ptr %53, i32 0, i32 32
  %55 = load i64, ptr %54, align 8, !tbaa !15
  %56 = mul nsw i64 8, %55
  %57 = getelementptr inbounds i8, ptr %52, i64 %56
  %58 = load ptr, ptr %6, align 8, !tbaa !4
  %59 = getelementptr inbounds nuw %struct.MpegEncContext, ptr %58, i32 0, i32 32
  %60 = load i64, ptr %59, align 8, !tbaa !15
  %61 = trunc i64 %60 to i32
  call void @wmv2_add_block(ptr noundef %47, ptr noundef %50, ptr noundef %57, i32 noundef %61, i32 noundef 3)
  %62 = load ptr, ptr %6, align 8, !tbaa !4
  %63 = getelementptr inbounds nuw %struct.MpegEncContext, ptr %62, i32 0, i32 10
  %64 = load ptr, ptr %63, align 8, !tbaa !42
  %65 = getelementptr inbounds nuw %struct.AVCodecContext, ptr %64, i32 0, i32 10
  %66 = load i32, ptr %65, align 8, !tbaa !43
  %67 = and i32 %66, 8192
  %68 = icmp ne i32 %67, 0
  br i1 %68, label %69, label %70

69:                                               ; preds = %5
  store i32 1, ptr %12, align 4
  br label %89

70:                                               ; preds = %5
  %71 = load ptr, ptr %11, align 8, !tbaa !13
  %72 = load ptr, ptr %7, align 8, !tbaa !9
  %73 = getelementptr inbounds [64 x i16], ptr %72, i64 4
  %74 = getelementptr inbounds [64 x i16], ptr %73, i64 0, i64 0
  %75 = load ptr, ptr %9, align 8, !tbaa !11
  %76 = load ptr, ptr %6, align 8, !tbaa !4
  %77 = getelementptr inbounds nuw %struct.MpegEncContext, ptr %76, i32 0, i32 33
  %78 = load i64, ptr %77, align 8, !tbaa !57
  %79 = trunc i64 %78 to i32
  call void @wmv2_add_block(ptr noundef %71, ptr noundef %74, ptr noundef %75, i32 noundef %79, i32 noundef 4)
  %80 = load ptr, ptr %11, align 8, !tbaa !13
  %81 = load ptr, ptr %7, align 8, !tbaa !9
  %82 = getelementptr inbounds [64 x i16], ptr %81, i64 5
  %83 = getelementptr inbounds [64 x i16], ptr %82, i64 0, i64 0
  %84 = load ptr, ptr %10, align 8, !tbaa !11
  %85 = load ptr, ptr %6, align 8, !tbaa !4
  %86 = getelementptr inbounds nuw %struct.MpegEncContext, ptr %85, i32 0, i32 33
  %87 = load i64, ptr %86, align 8, !tbaa !57
  %88 = trunc i64 %87 to i32
  call void @wmv2_add_block(ptr noundef %80, ptr noundef %83, ptr noundef %84, i32 noundef %88, i32 noundef 5)
  store i32 0, ptr %12, align 4
  br label %89

89:                                               ; preds = %70, %69
  call void @llvm.lifetime.end.p0(i64 8, ptr %11) #10
  %90 = load i32, ptr %12, align 4
  switch i32 %90, label %92 [
    i32 0, label %91
    i32 1, label %91
  ]

91:                                               ; preds = %89, %89
  ret void

92:                                               ; preds = %89
  unreachable
}