; Function Attrs: nounwind uwtable
define void @ff_wmv2_add_mb(ptr noundef %0, ptr noundef %1, ptr noundef %2, ptr noundef %3, ptr noundef %4) local_unnamed_addr #0 {
  %6 = getelementptr inbounds nuw i8, ptr %0, i64 568
  %7 = load i64, ptr %6, align 8, !tbaa !4
  %8 = trunc i64 %7 to i32
  tail call fastcc void @wmv2_add_block(ptr noundef %0, ptr noundef %1, ptr noundef %2, i32 noundef %8, i32 noundef 0)
  %9 = getelementptr inbounds nuw i8, ptr %1, i64 128
  %10 = getelementptr inbounds nuw i8, ptr %2, i64 8
  %11 = load i64, ptr %6, align 8, !tbaa !4
  %12 = trunc i64 %11 to i32
  tail call fastcc void @wmv2_add_block(ptr noundef %0, ptr noundef nonnull %9, ptr noundef nonnull %10, i32 noundef %12, i32 noundef 1)
  %13 = getelementptr inbounds nuw i8, ptr %1, i64 256
  %14 = load i64, ptr %6, align 8, !tbaa !4
  %15 = shl nsw i64 %14, 3
  %16 = getelementptr inbounds i8, ptr %2, i64 %15
  %17 = trunc i64 %14 to i32
  tail call fastcc void @wmv2_add_block(ptr noundef %0, ptr noundef nonnull %13, ptr noundef %16, i32 noundef %17, i32 noundef 2)
  %18 = getelementptr inbounds nuw i8, ptr %1, i64 384
  %19 = load i64, ptr %6, align 8, !tbaa !4
  %20 = shl nsw i64 %19, 3
  %21 = getelementptr inbounds i8, ptr %10, i64 %20
  %22 = trunc i64 %19 to i32
  tail call fastcc void @wmv2_add_block(ptr noundef %0, ptr noundef nonnull %18, ptr noundef nonnull %21, i32 noundef %22, i32 noundef 3)
  %23 = getelementptr inbounds nuw i8, ptr %0, i64 472
  %24 = load ptr, ptr %23, align 8, !tbaa !36
  %25 = getelementptr inbounds nuw i8, ptr %24, i64 64
  %26 = load i32, ptr %25, align 8, !tbaa !37
  %27 = and i32 %26, 8192
  %.not = icmp eq i32 %27, 0
  br i1 %.not, label %28, label %36

28:                                               ; preds = %5
  %29 = getelementptr inbounds nuw i8, ptr %1, i64 512
  %30 = getelementptr inbounds nuw i8, ptr %0, i64 576
  %31 = load i64, ptr %30, align 8, !tbaa !51
  %32 = trunc i64 %31 to i32
  tail call fastcc void @wmv2_add_block(ptr noundef nonnull %0, ptr noundef nonnull %29, ptr noundef %3, i32 noundef %32, i32 noundef 4)
  %33 = getelementptr inbounds nuw i8, ptr %1, i64 640
  %34 = load i64, ptr %30, align 8, !tbaa !51
  %35 = trunc i64 %34 to i32
  tail call fastcc void @wmv2_add_block(ptr noundef nonnull %0, ptr noundef nonnull %33, ptr noundef %4, i32 noundef %35, i32 noundef 5)
  br label %36

36:                                               ; preds = %5, %28
  ret void
}